; Function Attrs: nounwind uwtable
define hidden range(i32 0, 2) i32 @SSL_CTX_set_cipher_list_tls11(ptr noundef %0, ptr noundef %1) local_unnamed_addr #0 {
  %3 = load ptr, ptr %0, align 8, !tbaa !13
  %4 = getelementptr inbounds nuw i8, ptr %0, i64 96
  %5 = tail call ptr @ssl_create_cipher_list(ptr noundef %3, ptr noundef nonnull %4, ptr noundef null, ptr noundef %1) #21
  %6 = icmp eq ptr %5, null
  br i1 %6, label %11, label %7

7:                                                ; preds = %2
  %8 = tail call i64 @sk_num(ptr noundef nonnull %5) #21
  %9 = icmp eq i64 %8, 0
  br i1 %9, label %10, label %11

10:                                               ; preds = %7
  tail call void @ERR_put_error(i32 noundef 16, i32 noundef 0, i32 noundef 177, ptr noundef nonnull @.str, i32 noundef 1383) #21
  br label %11

11:                                               ; preds = %7, %2, %10
  %.0 = phi i32 [ 0, %10 ], [ 0, %2 ], [ 1, %7 ]
  ret i32 %.0
}